target datalayout = "e-m:e-p270:32:32-p271:32:32-p272:64:64-i64:64-i128:128-f80:128-n8:16:32:64-S128"
target triple = "x86_64-pc-linux-gnu"

%struct.Abc_Obj_t_ = type { ptr, ptr, i32, i32, %struct.Vec_Int_t_, %struct.Vec_Int_t_, %union.anon, %union.anon.0 }
%struct.Vec_Int_t_ = type { i32, i32, ptr }
%union.anon = type { ptr }
%union.anon.0 = type { ptr }
%struct.Abc_Ntk_t_ = type { i32, i32, ptr, ptr, ptr, ptr, ptr, ptr, ptr, ptr, ptr, ptr, ptr, [11 x i32], i32, i32, i32, i32, ptr, i32, ptr, ptr, i32, i32, i32, double, i32, %struct.Vec_Int_t_, ptr, ptr, ptr, ptr, ptr, float, i32, ptr, ptr, ptr, ptr, ptr, ptr, ptr, ptr, ptr, ptr, ptr, ptr, ptr, ptr, ptr, ptr, ptr, ptr, ptr, ptr, ptr, ptr }
%struct.Vec_Ptr_t_ = type { i32, i32, ptr }

@.str = private unnamed_addr constant [4 x i8] c"_lo\00", align 1
@.str.3 = private unnamed_addr constant [4 x i8] c"_pi\00", align 1
@.str.4 = private unnamed_addr constant [54 x i8] c"The number of converted latches with DC values = %d.\0A\00", align 1

; Function Attrs: inlinehint nounwind uwtable
define internal ptr @Vec_PtrEntry(ptr noundef %0, i32 noundef %1) #2 {
  %3 = alloca ptr, align 8
  %4 = alloca i32, align 4
  store ptr %0, ptr %3, align 8, !tbaa !37
  store i32 %1, ptr %4, align 4, !tbaa !31
  %5 = load ptr, ptr %3, align 8, !tbaa !37
  %6 = getelementptr inbounds nuw %struct.Vec_Ptr_t_, ptr %5, i32 0, i32 2
  %7 = load ptr, ptr %6, align 8, !tbaa !28
  %8 = load i32, ptr %4, align 4, !tbaa !31
  %9 = sext i32 %8 to i64
  %10 = getelementptr inbounds ptr, ptr %7, i64 %9
  %11 = load ptr, ptr %10, align 8, !tbaa !32
  ret ptr %11
}

; Function Attrs: inlinehint nounwind uwtable
define internal ptr @Abc_NtkCreateNode(ptr noundef %0) #2 {
  %2 = alloca ptr, align 8
  store ptr %0, ptr %2, align 8, !tbaa !33
  %3 = load ptr, ptr %2, align 8, !tbaa !33
  %4 = call ptr @Abc_NtkCreateObj(ptr noundef %3, i32 noundef 7)
  ret ptr %4
}

; Function Attrs: inlinehint nounwind uwtable
define internal ptr @Abc_NtkCreatePi(ptr noundef %0) #2 {
  %2 = alloca ptr, align 8
  store ptr %0, ptr %2, align 8, !tbaa !33
  %3 = load ptr, ptr %2, align 8, !tbaa !33
  %4 = call ptr @Abc_NtkCreateObj(ptr noundef %3, i32 noundef 2)
  ret ptr %4
}

; Function Attrs: inlinehint nounwind uwtable
define internal ptr @Abc_ObjFanout0(ptr noundef %0) #2 {
  %2 = alloca ptr, align 8
  store ptr %0, ptr %2, align 8, !tbaa !3
  %3 = load ptr, ptr %2, align 8, !tbaa !3
  %4 = getelementptr inbounds nuw %struct.Abc_Obj_t_, ptr %3, i32 0, i32 0
  %5 = load ptr, ptr %4, align 8, !tbaa !8
  %6 = getelementptr inbounds nuw %struct.Abc_Ntk_t_, ptr %5, i32 0, i32 5
  %7 = load ptr, ptr %6, align 8, !tbaa !14
  %8 = getelementptr inbounds nuw %struct.Vec_Ptr_t_, ptr %7, i32 0, i32 2
  %9 = load ptr, ptr %8, align 8, !tbaa !28
  %10 = load ptr, ptr %2, align 8, !tbaa !3
  %11 = getelementptr inbounds nuw %struct.Abc_Obj_t_, ptr %10, i32 0, i32 5
  %12 = getelementptr inbounds nuw %struct.Vec_Int_t_, ptr %11, i32 0, i32 2
  %13 = load ptr, ptr %12, align 8, !tbaa !62
  %14 = getelementptr inbounds i32, ptr %13, i64 0
  %15 = load i32, ptr %14, align 4, !tbaa !31
  %16 = sext i32 %15 to i64
  %17 = getelementptr inbounds ptr, ptr %9, i64 %16
  %18 = load ptr, ptr %17, align 8, !tbaa !32
  ret ptr %18
}

; Function Attrs: inlinehint nounwind uwtable
define internal i32 @Abc_LatchIsInitDc(ptr noundef %0) #2 {
  %2 = alloca ptr, align 8
  store ptr %0, ptr %2, align 8, !tbaa !3
  %3 = load ptr, ptr %2, align 8, !tbaa !3
  %4 = getelementptr inbounds nuw %struct.Abc_Obj_t_, ptr %3, i32 0, i32 6
  %5 = load ptr, ptr %4, align 8, !tbaa !47
  %6 = icmp eq ptr %5, inttoptr (i64 3 to ptr)
  %7 = zext i1 %6 to i32
  ret i32 %7
}

; Function Attrs: inlinehint nounwind uwtable
define internal i32 @Abc_ObjIsLatch(ptr noundef %0) #2 {
  %2 = alloca ptr, align 8
  store ptr %0, ptr %2, align 8, !tbaa !3
  %3 = load ptr, ptr %2, align 8, !tbaa !3
  %4 = getelementptr inbounds nuw %struct.Abc_Obj_t_, ptr %3, i32 0, i32 3
  %5 = load i32, ptr %4, align 4
  %6 = and i32 %5, 15
  %7 = icmp eq i32 %6, 8
  %8 = zext i1 %7 to i32
  ret i32 %8
}

; Function Attrs: inlinehint nounwind uwtable
define internal ptr @Abc_NtkBox(ptr noundef %0, i32 noundef %1) #2 {
  %3 = alloca ptr, align 8
  %4 = alloca i32, align 4
  store ptr %0, ptr %3, align 8, !tbaa !33
  store i32 %1, ptr %4, align 4, !tbaa !31
  %5 = load ptr, ptr %3, align 8, !tbaa !33
  %6 = getelementptr inbounds nuw %struct.Abc_Ntk_t_, ptr %5, i32 0, i32 11
  %7 = load ptr, ptr %6, align 8, !tbaa !34
  %8 = load i32, ptr %4, align 4, !tbaa !31
  %9 = call ptr @Vec_PtrEntry(ptr noundef %7, i32 noundef %8)
  ret ptr %9
}

; Function Attrs: inlinehint nounwind uwtable
define internal i32 @Vec_PtrSize(ptr noundef %0) #2 {
  %2 = alloca ptr, align 8
  store ptr %0, ptr %2, align 8, !tbaa !37
  %3 = load ptr, ptr %2, align 8, !tbaa !37
  %4 = getelementptr inbounds nuw %struct.Vec_Ptr_t_, ptr %3, i32 0, i32 1
  %5 = load i32, ptr %4, align 4, !tbaa !38
  ret i32 %5
}

; Function Attrs: nounwind uwtable
define void @Abc_NtkConvertDcLatches(ptr noundef %0) #0 {
  %2 = alloca ptr, align 8
  %3 = alloca ptr, align 8
  %4 = alloca ptr, align 8
  %5 = alloca ptr, align 8
  %6 = alloca ptr, align 8
  %7 = alloca i32, align 4
  %8 = alloca i32, align 4
  %9 = alloca i32, align 4
  %10 = alloca i32, align 4
  %11 = alloca i32, align 4
  store ptr %0, ptr %2, align 8, !tbaa !33
  call void @llvm.lifetime.start.p0(i64 8, ptr %3) #7
  call void @llvm.lifetime.start.p0(i64 8, ptr %4) #7
  call void @llvm.lifetime.start.p0(i64 8, ptr %5) #7
  call void @llvm.lifetime.start.p0(i64 8, ptr %6) #7
  call void @llvm.lifetime.start.p0(i64 4, ptr %7) #7
  store i32 1, ptr %7, align 4, !tbaa !31
  call void @llvm.lifetime.start.p0(i64 4, ptr %8) #7
  call void @llvm.lifetime.start.p0(i64 4, ptr %9) #7
  store i32 0, ptr %9, align 4, !tbaa !31
  call void @llvm.lifetime.start.p0(i64 4, ptr %10) #7
  store i32 0, ptr %8, align 4, !tbaa !31
  br label %12

12:                                               ; preds = %37, %1
  %13 = load i32, ptr %8, align 4, !tbaa !31
  %14 = load ptr, ptr %2, align 8, !tbaa !33
  %15 = getelementptr inbounds nuw %struct.Abc_Ntk_t_, ptr %14, i32 0, i32 11
  %16 = load ptr, ptr %15, align 8, !tbaa !34
  %17 = call i32 @Vec_PtrSize(ptr noundef %16)
  %18 = icmp slt i32 %13, %17
  br i1 %18, label %19, label %23

19:                                               ; preds = %12
  %20 = load ptr, ptr %2, align 8, !tbaa !33
  %21 = load i32, ptr %8, align 4, !tbaa !31
  %22 = call ptr @Abc_NtkBox(ptr noundef %20, i32 noundef %21)
  store ptr %22, ptr %4, align 8, !tbaa !3
  br label %23

23:                                               ; preds = %19, %12
  %24 = phi i1 [ false, %12 ], [ true, %19 ]
  br i1 %24, label %25, label %40

25:                                               ; preds = %23
  %26 = load ptr, ptr %4, align 8, !tbaa !3
  %27 = call i32 @Abc_ObjIsLatch(ptr noundef %26)
  %28 = icmp ne i32 %27, 0
  br i1 %28, label %30, label %29

29:                                               ; preds = %25
  br label %36

30:                                               ; preds = %25
  %31 = load ptr, ptr %4, align 8, !tbaa !3
  %32 = call i32 @Abc_LatchIsInitDc(ptr noundef %31)
  %33 = icmp ne i32 %32, 0
  br i1 %33, label %34, label %35

34:                                               ; preds = %30
  store i32 1, ptr %9, align 4, !tbaa !31
  br label %40

35:                                               ; preds = %30
  br label %36

36:                                               ; preds = %35, %29
  br label %37

37:                                               ; preds = %36
  %38 = load i32, ptr %8, align 4, !tbaa !31
  %39 = add nsw i32 %38, 1
  store i32 %39, ptr %8, align 4, !tbaa !31
  br label %12, !llvm.loop !58

40:                                               ; preds = %34, %23
  %41 = load i32, ptr %9, align 4, !tbaa !31
  %42 = icmp ne i32 %41, 0
  br i1 %42, label %44, label %43

43:                                               ; preds = %40
  store i32 1, ptr %11, align 4
  br label %125

44:                                               ; preds = %40
  %45 = load ptr, ptr %2, align 8, !tbaa !33
  %46 = load ptr, ptr %2, align 8, !tbaa !33
  %47 = call ptr @Abc_NtkCreateNodeConst1(ptr noundef %46)
  %48 = load i32, ptr %7, align 4, !tbaa !31
  %49 = call ptr @Abc_NtkAddLatch(ptr noundef %45, ptr noundef %47, i32 noundef %48)
  store ptr %49, ptr %3, align 8, !tbaa !3
  store i32 0, ptr %10, align 4, !tbaa !31
  store i32 0, ptr %8, align 4, !tbaa !31
  br label %50

50:                                               ; preds = %119, %44
  %51 = load i32, ptr %8, align 4, !tbaa !31
  %52 = load ptr, ptr %2, align 8, !tbaa !33
  %53 = getelementptr inbounds nuw %struct.Abc_Ntk_t_, ptr %52, i32 0, i32 11
  %54 = load ptr, ptr %53, align 8, !tbaa !34
  %55 = call i32 @Vec_PtrSize(ptr noundef %54)
  %56 = icmp slt i32 %51, %55
  br i1 %56, label %57, label %61

57:                                               ; preds = %50
  %58 = load ptr, ptr %2, align 8, !tbaa !33
  %59 = load i32, ptr %8, align 4, !tbaa !31
  %60 = call ptr @Abc_NtkBox(ptr noundef %58, i32 noundef %59)
  store ptr %60, ptr %4, align 8, !tbaa !3
  br label %61

61:                                               ; preds = %57, %50
  %62 = phi i1 [ false, %50 ], [ true, %57 ]
  br i1 %62, label %63, label %122

63:                                               ; preds = %61
  %64 = load ptr, ptr %4, align 8, !tbaa !3
  %65 = call i32 @Abc_ObjIsLatch(ptr noundef %64)
  %66 = icmp ne i32 %65, 0
  br i1 %66, label %68, label %67

67:                                               ; preds = %63
  br label %118

68:                                               ; preds = %63
  %69 = load ptr, ptr %4, align 8, !tbaa !3
  %70 = call i32 @Abc_LatchIsInitDc(ptr noundef %69)
  %71 = icmp ne i32 %70, 0
  br i1 %71, label %73, label %72

72:                                               ; preds = %68
  br label %119

73:                                               ; preds = %68
  %74 = load i32, ptr %7, align 4, !tbaa !31
  %75 = zext i32 %74 to i64
  %76 = inttoptr i64 %75 to ptr
  %77 = load ptr, ptr %4, align 8, !tbaa !3
  %78 = getelementptr inbounds nuw %struct.Abc_Obj_t_, ptr %77, i32 0, i32 6
  store ptr %76, ptr %78, align 8, !tbaa !47
  %79 = load ptr, ptr %4, align 8, !tbaa !3
  %80 = call ptr @Abc_ObjFanout0(ptr noundef %79)
  %81 = call ptr @Abc_NodeFindCoFanout(ptr noundef %80)
  %82 = icmp ne ptr %81, null
  br i1 %82, label %83, label %98

83:                                               ; preds = %73
  %84 = load ptr, ptr %4, align 8, !tbaa !3
  %85 = getelementptr inbounds nuw %struct.Abc_Obj_t_, ptr %84, i32 0, i32 0
  %86 = load ptr, ptr %85, align 8, !tbaa !8
  %87 = getelementptr inbounds nuw %struct.Abc_Ntk_t_, ptr %86, i32 0, i32 4
  %88 = load ptr, ptr %87, align 8, !tbaa !59
  %89 = load ptr, ptr %4, align 8, !tbaa !3
  %90 = call ptr @Abc_ObjFanout0(ptr noundef %89)
  %91 = getelementptr inbounds nuw %struct.Abc_Obj_t_, ptr %90, i32 0, i32 2
  %92 = load i32, ptr %91, align 8, !tbaa !60
  call void @Nm_ManDeleteIdName(ptr noundef %88, i32 noundef %92)
  %93 = load ptr, ptr %4, align 8, !tbaa !3
  %94 = call ptr @Abc_ObjFanout0(ptr noundef %93)
  %95 = load ptr, ptr %4, align 8, !tbaa !3
  %96 = call ptr @Abc_ObjName(ptr noundef %95)
  %97 = call ptr @Abc_ObjAssignName(ptr noundef %94, ptr noundef %96, ptr noundef @.str)
  br label %98

98:                                               ; preds = %83, %73
  %99 = load ptr, ptr %2, align 8, !tbaa !33
  %100 = call ptr @Abc_NtkCreatePi(ptr noundef %99)
  store ptr %100, ptr %6, align 8, !tbaa !3
  %101 = load ptr, ptr %6, align 8, !tbaa !3
  %102 = load ptr, ptr %4, align 8, !tbaa !3
  %103 = call ptr @Abc_ObjName(ptr noundef %102)
  %104 = call ptr @Abc_ObjAssignName(ptr noundef %101, ptr noundef %103, ptr noundef @.str.3)
  %105 = load ptr, ptr %2, align 8, !tbaa !33
  %106 = call ptr @Abc_NtkCreateNode(ptr noundef %105)
  store ptr %106, ptr %5, align 8, !tbaa !3
  %107 = load ptr, ptr %4, align 8, !tbaa !3
  %108 = call ptr @Abc_ObjFanout0(ptr noundef %107)
  %109 = load ptr, ptr %5, align 8, !tbaa !3
  call void @Abc_ObjTransferFanout(ptr noundef %108, ptr noundef %109)
  %110 = load ptr, ptr %2, align 8, !tbaa !33
  %111 = load ptr, ptr %3, align 8, !tbaa !3
  %112 = load ptr, ptr %4, align 8, !tbaa !3
  %113 = call ptr @Abc_ObjFanout0(ptr noundef %112)
  %114 = load ptr, ptr %6, align 8, !tbaa !3
  %115 = load ptr, ptr %5, align 8, !tbaa !3
  call void @Abc_NtkNodeConvertToMux(ptr noundef %110, ptr noundef %111, ptr noundef %113, ptr noundef %114, ptr noundef %115)
  %116 = load i32, ptr %10, align 4, !tbaa !31
  %117 = add nsw i32 %116, 1
  store i32 %117, ptr %10, align 4, !tbaa !31
  br label %118

118:                                              ; preds = %98, %67
  br label %119

119:                                              ; preds = %118, %72
  %120 = load i32, ptr %8, align 4, !tbaa !31
  %121 = add nsw i32 %120, 1
  store i32 %121, ptr %8, align 4, !tbaa !31
  br label %50, !llvm.loop !61

122:                                              ; preds = %61
  %123 = load i32, ptr %10, align 4, !tbaa !31
  %124 = call i32 (ptr, ...) @printf(ptr noundef @.str.4, i32 noundef %123)
  store i32 0, ptr %11, align 4
  br label %125

125:                                              ; preds = %122, %43
  call void @llvm.lifetime.end.p0(i64 4, ptr %10) #7
  call void @llvm.lifetime.end.p0(i64 4, ptr %9) #7
  call void @llvm.lifetime.end.p0(i64 4, ptr %8) #7
  call void @llvm.lifetime.end.p0(i64 4, ptr %7) #7
  call void @llvm.lifetime.end.p0(i64 8, ptr %6) #7
  call void @llvm.lifetime.end.p0(i64 8, ptr %5) #7
  call void @llvm.lifetime.end.p0(i64 8, ptr %4) #7
  call void @llvm.lifetime.end.p0(i64 8, ptr %3) #7
  %126 = load i32, ptr %11, align 4
  switch i32 %126, label %128 [
    i32 0, label %127
    i32 1, label %127
  ]

127:                                              ; preds = %125, %125
  ret void

128:                                              ; preds = %125
  unreachable
}