; Function Attrs: nounwind uwtable
define void @Abc_NtkConvertDcLatches(ptr noundef %0) local_unnamed_addr #2 {
  %2 = getelementptr inbounds nuw i8, ptr %0, i64 80
  %3 = load ptr, ptr %2, align 8, !tbaa !32
  %4 = getelementptr i8, ptr %3, i64 4
  %.val51 = load i32, ptr %4, align 4, !tbaa !33
  %.not4470 = icmp sgt i32 %.val51, 0
  br i1 %.not4470, label %.lr.ph, label %.critedge48

.lr.ph:                                           ; preds = %1
  %5 = getelementptr i8, ptr %3, i64 8
  %.val53.val = load ptr, ptr %5, align 8, !tbaa !29
  %wide.trip.count = zext nneg i32 %.val51 to i64
  br label %6

6:                                                ; preds = %.lr.ph, %13
  %indvars.iv = phi i64 [ 0, %.lr.ph ], [ %indvars.iv.next, %13 ]
  %7 = getelementptr inbounds nuw ptr, ptr %.val53.val, i64 %indvars.iv
  %8 = load ptr, ptr %7, align 8, !tbaa !31
  %9 = getelementptr i8, ptr %8, i64 20
  %.val49 = load i32, ptr %9, align 4
  %10 = and i32 %.val49, 15
  %.not = icmp eq i32 %10, 8
  br i1 %.not, label %11, label %13

11:                                               ; preds = %6
  %12 = getelementptr i8, ptr %8, i64 56
  %.val55 = load ptr, ptr %12, align 8, !tbaa !42
  %.not66 = icmp eq ptr %.val55, inttoptr (i64 3 to ptr)
  br i1 %.not66, label %.critedge, label %13

13:                                               ; preds = %6, %11
  %indvars.iv.next = add nuw nsw i64 %indvars.iv, 1
  %exitcond.not = icmp eq i64 %indvars.iv.next, %wide.trip.count
  br i1 %exitcond.not, label %.critedge48, label %6, !llvm.loop !52

.critedge:                                        ; preds = %11
  %14 = tail call ptr @Abc_NtkCreateNodeConst1(ptr noundef nonnull %0) #12
  %15 = tail call ptr @Abc_NtkAddLatch(ptr noundef nonnull %0, ptr noundef %14, i32 noundef 1)
  %16 = load ptr, ptr %2, align 8, !tbaa !32
  %17 = getelementptr i8, ptr %16, i64 4
  %.val5072 = load i32, ptr %17, align 4, !tbaa !33
  %18 = icmp sgt i32 %.val5072, 0
  br i1 %18, label %.lr.ph75, label %.critedge2

.lr.ph75:                                         ; preds = %.critedge, %69
  %19 = phi ptr [ %70, %69 ], [ %16, %.critedge ]
  %indvars.iv77 = phi i64 [ %indvars.iv.next78, %69 ], [ 0, %.critedge ]
  %.074 = phi i32 [ %.1, %69 ], [ 0, %.critedge ]
  %20 = getelementptr i8, ptr %19, i64 8
  %.val52.val = load ptr, ptr %20, align 8, !tbaa !29
  %21 = getelementptr inbounds nuw ptr, ptr %.val52.val, i64 %indvars.iv77
  %22 = load ptr, ptr %21, align 8, !tbaa !31
  %23 = getelementptr i8, ptr %22, i64 20
  %.val = load i32, ptr %23, align 4
  %24 = and i32 %.val, 15
  %.not67 = icmp eq i32 %24, 8
  br i1 %.not67, label %25, label %69

25:                                               ; preds = %.lr.ph75
  %26 = getelementptr i8, ptr %22, i64 56
  %.val54 = load ptr, ptr %26, align 8, !tbaa !42
  %.not68 = icmp eq ptr %.val54, inttoptr (i64 3 to ptr)
  br i1 %.not68, label %27, label %69

27:                                               ; preds = %25
  store ptr inttoptr (i64 1 to ptr), ptr %26, align 8, !tbaa !42
  %.val56 = load ptr, ptr %22, align 8, !tbaa !3
  %28 = getelementptr i8, ptr %22, i64 48
  %.val57 = load ptr, ptr %28, align 8, !tbaa !53
  %29 = getelementptr i8, ptr %.val56, i64 32
  %.val56.val = load ptr, ptr %29, align 8, !tbaa !14
  %.val57.val = load i32, ptr %.val57, align 4, !tbaa !28
  %30 = getelementptr i8, ptr %.val56.val, i64 8
  %.val56.val.val = load ptr, ptr %30, align 8, !tbaa !29
  %31 = sext i32 %.val57.val to i64
  %32 = getelementptr inbounds ptr, ptr %.val56.val.val, i64 %31
  %33 = load ptr, ptr %32, align 8, !tbaa !31
  %34 = tail call ptr @Abc_NodeFindCoFanout(ptr noundef %33) #12
  %.not47 = icmp eq ptr %34, null
  br i1 %.not47, label %53, label %35

35:                                               ; preds = %27
  %36 = load ptr, ptr %22, align 8, !tbaa !3
  %37 = getelementptr inbounds nuw i8, ptr %36, i64 24
  %38 = load ptr, ptr %37, align 8, !tbaa !54
  %.val59 = load ptr, ptr %28, align 8, !tbaa !53
  %39 = getelementptr i8, ptr %36, i64 32
  %.val58.val = load ptr, ptr %39, align 8, !tbaa !14
  %.val59.val = load i32, ptr %.val59, align 4, !tbaa !28
  %40 = getelementptr i8, ptr %.val58.val, i64 8
  %.val58.val.val = load ptr, ptr %40, align 8, !tbaa !29
  %41 = sext i32 %.val59.val to i64
  %42 = getelementptr inbounds ptr, ptr %.val58.val.val, i64 %41
  %43 = load ptr, ptr %42, align 8, !tbaa !31
  %44 = getelementptr inbounds nuw i8, ptr %43, i64 16
  %45 = load i32, ptr %44, align 8, !tbaa !55
  tail call void @Nm_ManDeleteIdName(ptr noundef %38, i32 noundef %45) #12
  %.val60 = load ptr, ptr %22, align 8, !tbaa !3
  %.val61 = load ptr, ptr %28, align 8, !tbaa !53
  %46 = getelementptr i8, ptr %.val60, i64 32
  %.val60.val = load ptr, ptr %46, align 8, !tbaa !14
  %.val61.val = load i32, ptr %.val61, align 4, !tbaa !28
  %47 = getelementptr i8, ptr %.val60.val, i64 8
  %.val60.val.val = load ptr, ptr %47, align 8, !tbaa !29
  %48 = sext i32 %.val61.val to i64
  %49 = getelementptr inbounds ptr, ptr %.val60.val.val, i64 %48
  %50 = load ptr, ptr %49, align 8, !tbaa !31
  %51 = tail call ptr @Abc_ObjName(ptr noundef nonnull %22) #12
  %52 = tail call ptr @Abc_ObjAssignName(ptr noundef %50, ptr noundef %51, ptr noundef nonnull @.str) #12
  br label %53

53:                                               ; preds = %35, %27
  %54 = tail call ptr @Abc_NtkCreateObj(ptr noundef nonnull %0, i32 noundef 2) #12
  %55 = tail call ptr @Abc_ObjName(ptr noundef nonnull %22) #12
  %56 = tail call ptr @Abc_ObjAssignName(ptr noundef %54, ptr noundef %55, ptr noundef nonnull @.str.3) #12
  %57 = tail call ptr @Abc_NtkCreateObj(ptr noundef nonnull %0, i32 noundef 7) #12
  %.val62 = load ptr, ptr %22, align 8, !tbaa !3
  %.val63 = load ptr, ptr %28, align 8, !tbaa !53
  %58 = getelementptr i8, ptr %.val62, i64 32
  %.val62.val = load ptr, ptr %58, align 8, !tbaa !14
  %.val63.val = load i32, ptr %.val63, align 4, !tbaa !28
  %59 = getelementptr i8, ptr %.val62.val, i64 8
  %.val62.val.val = load ptr, ptr %59, align 8, !tbaa !29
  %60 = sext i32 %.val63.val to i64
  %61 = getelementptr inbounds ptr, ptr %.val62.val.val, i64 %60
  %62 = load ptr, ptr %61, align 8, !tbaa !31
  tail call void @Abc_ObjTransferFanout(ptr noundef %62, ptr noundef %57) #12
  %.val64 = load ptr, ptr %22, align 8, !tbaa !3
  %.val65 = load ptr, ptr %28, align 8, !tbaa !53
  %63 = getelementptr i8, ptr %.val64, i64 32
  %.val64.val = load ptr, ptr %63, align 8, !tbaa !14
  %.val65.val = load i32, ptr %.val65, align 4, !tbaa !28
  %64 = getelementptr i8, ptr %.val64.val, i64 8
  %.val64.val.val = load ptr, ptr %64, align 8, !tbaa !29
  %65 = sext i32 %.val65.val to i64
  %66 = getelementptr inbounds ptr, ptr %.val64.val.val, i64 %65
  %67 = load ptr, ptr %66, align 8, !tbaa !31
  tail call void @Abc_NtkNodeConvertToMux(ptr noundef nonnull %0, ptr noundef %15, ptr noundef %67, ptr noundef %54, ptr noundef %57)
  %68 = add nsw i32 %.074, 1
  %.pre = load ptr, ptr %2, align 8, !tbaa !32
  br label %69

69:                                               ; preds = %53, %.lr.ph75, %25
  %70 = phi ptr [ %.pre, %53 ], [ %19, %25 ], [ %19, %.lr.ph75 ]
  %.1 = phi i32 [ %68, %53 ], [ %.074, %25 ], [ %.074, %.lr.ph75 ]
  %indvars.iv.next78 = add nuw nsw i64 %indvars.iv77, 1
  %71 = getelementptr i8, ptr %70, i64 4
  %.val50 = load i32, ptr %71, align 4, !tbaa !33
  %72 = sext i32 %.val50 to i64
  %73 = icmp slt i64 %indvars.iv.next78, %72
  br i1 %73, label %.lr.ph75, label %.critedge2, !llvm.loop !56

.critedge2:                                       ; preds = %69, %.critedge
  %.0.lcssa = phi i32 [ 0, %.critedge ], [ %.1, %69 ]
  %74 = tail call i32 (ptr, ...) @printf(ptr noundef nonnull dereferenceable(1) @.str.4, i32 noundef %.0.lcssa)
  br label %.critedge48

.critedge48:                                      ; preds = %13, %1, %.critedge2
  ret void
}